; Function Attrs: nounwind uwtable
define internal void @ConvertBGRAToRGBA4444_SSE2(ptr noalias noundef %0, i32 noundef %1, ptr noalias noundef %2) #2 {
  %4 = icmp sgt i32 %1, 7
  br i1 %4, label %.lr.ph, label %._crit_edge

.lr.ph:                                           ; preds = %3, %.lr.ph
  %.041 = phi i32 [ %24, %.lr.ph ], [ %1, %3 ]
  %.03740 = phi ptr [ %7, %.lr.ph ], [ %0, %3 ]
  %.03839 = phi ptr [ %23, %.lr.ph ], [ %2, %3 ]
  %5 = getelementptr inbounds nuw i8, ptr %.03740, i64 16
  %6 = load <16 x i8>, ptr %.03740, align 1, !tbaa !9
  %7 = getelementptr inbounds nuw i8, ptr %.03740, i64 32
  %8 = load <16 x i8>, ptr %5, align 1, !tbaa !9
  %9 = shufflevector <16 x i8> %6, <16 x i8> %8, <16 x i32> <i32 0, i32 4, i32 8, i32 12, i32 16, i32 20, i32 24, i32 28, i32 1, i32 5, i32 9, i32 13, i32 17, i32 21, i32 25, i32 29>
  %10 = bitcast <16 x i8> %9 to <2 x i64>
  %11 = shufflevector <16 x i8> %6, <16 x i8> %8, <16 x i32> <i32 2, i32 6, i32 10, i32 14, i32 18, i32 22, i32 26, i32 30, i32 3, i32 7, i32 11, i32 15, i32 19, i32 23, i32 27, i32 31>
  %12 = bitcast <16 x i8> %11 to <2 x i64>
  %13 = shufflevector <2 x i64> %10, <2 x i64> %12, <2 x i32> <i32 1, i32 3>
  %14 = shufflevector <2 x i64> %12, <2 x i64> %10, <2 x i32> <i32 0, i32 2>
  %15 = bitcast <2 x i64> %13 to <8 x i16>
  %16 = lshr <8 x i16> %15, splat (i16 4)
  %17 = bitcast <8 x i16> %16 to <2 x i64>
  %18 = and <2 x i64> %14, splat (i64 -1085102592571150096)
  %19 = and <2 x i64> %17, splat (i64 1085102592571150095)
  %20 = or disjoint <2 x i64> %19, %18
  %21 = bitcast <2 x i64> %20 to <16 x i8>
  %22 = shufflevector <16 x i8> %21, <16 x i8> poison, <16 x i32> <i32 0, i32 8, i32 1, i32 9, i32 2, i32 10, i32 3, i32 11, i32 4, i32 12, i32 5, i32 13, i32 6, i32 14, i32 7, i32 15>
  %23 = getelementptr inbounds nuw i8, ptr %.03839, i64 16
  store <16 x i8> %22, ptr %.03839, align 1, !tbaa !9
  %24 = add nsw i32 %.041, -8
  %25 = icmp samesign ugt i32 %.041, 15
  br i1 %25, label %.lr.ph, label %._crit_edge, !llvm.loop !33

._crit_edge:                                      ; preds = %.lr.ph, %3
  %.038.lcssa = phi ptr [ %2, %3 ], [ %23, %.lr.ph ]
  %.037.lcssa = phi ptr [ %0, %3 ], [ %7, %.lr.ph ]
  %.0.lcssa = phi i32 [ %1, %3 ], [ %24, %.lr.ph ]
  %26 = icmp sgt i32 %.0.lcssa, 0
  br i1 %26, label %27, label %28

27:                                               ; preds = %._crit_edge
  tail call void @VP8LConvertBGRAToRGBA4444_C(ptr noundef %.037.lcssa, i32 noundef %.0.lcssa, ptr noundef %.038.lcssa) #7
  br label %28

28:                                               ; preds = %27, %._crit_edge
  ret void
}